target datalayout = "e-m:e-p270:32:32-p271:32:32-p272:64:64-i64:64-i128:128-f80:128-n8:16:32:64-S128"
target triple = "x86_64-pc-linux-gnu"

%class.CmdExtract = type { %class.Array, ptr, i8, %class.RarTime, ptr, %class.ComprDataIO, ptr, i64, i64, i64, i8, i8, i8, i8, i8, [2048 x i32], i8, i8, [2048 x i32], i8, i8, %"class.std::__cxx11::basic_string" }
%class.Array = type { ptr, i64, i64, i64 }
%class.RarTime = type { i64 }
%class.ComprDataIO = type <{ i8, [7 x i8], i64, ptr, i8, [7 x i8], i64, ptr, i64, ptr, i64, i64, i8, i8, i8, i8, [4 x i8], ptr, ptr, ptr, ptr, ptr, ptr, ptr, i32, i32, i8, i8, i8, [5 x i8], i64, i64, i64, i64, i64, i64, i64, %class.DataHash, %class.DataHash, %class.DataHash, i8, i8, [6 x i8] }>
%class.DataHash = type { i32, i32, ptr }
%"class.std::__cxx11::basic_string" = type { %"struct.std::__cxx11::basic_string<wchar_t>::_Alloc_hider", i64, %union.anon }
%"struct.std::__cxx11::basic_string<wchar_t>::_Alloc_hider" = type { ptr }
%union.anon = type { i64, [8 x i8] }
%class.CommandData = type { %class.RAROptions, i8, i8, i32, i8, [2064 x i32], [2048 x i32], %class.StringList, %class.StringList, %class.StringList, %class.StringList, %class.StringList, %class.SecPassword, %"class.std::vector.5" }
%class.RAROptions = type { i32, i32, i8, i8, i8, i64, [2048 x i32], [2048 x i32], i32, i8, [2048 x i32], [2048 x i32], i32, i32, i32, i32, [2048 x i32], [2048 x i32], i8, i8, i8, [2048 x i32], i32, i32, i32, i32, i32, i32, i32, i32, i8, i8, i8, i8, i8, i32, i32, i8, i8, i8, i8, i8, i32, i32, i64, i32, i8, i8, i8, i32, i32, i8, i8, i8, i8, i32, i32, i8, i8, i8, i8, [128 x i32], [128 x i32], i8, i8, i8, i8, i8, %class.RarTime, %class.RarTime, %class.RarTime, i8, i8, i8, %class.RarTime, %class.RarTime, %class.RarTime, i8, i8, i8, i64, i64, i8, i8, i8, [16 x %struct.FilterMode], [2048 x i32], i32, i32, i32, i32, i32, i32, i8, [2048 x i32], i32, [2048 x i32], i32, i32, i64, ptr, ptr, ptr }
%struct.FilterMode = type { i32, i32, i32 }
%class.StringList = type { %class.Array.4, i64, i64, [16 x i64], i64 }
%class.Array.4 = type { ptr, i64, i64, i64 }
%class.SecPassword = type <{ %"class.std::vector", i8, [7 x i8] }>
%"class.std::vector" = type { %"struct.std::_Vector_base" }
%"struct.std::_Vector_base" = type { %"struct.std::_Vector_base<wchar_t, std::allocator<wchar_t>>::_Vector_impl" }
%"struct.std::_Vector_base<wchar_t, std::allocator<wchar_t>>::_Vector_impl" = type { %"struct.std::_Vector_base<wchar_t, std::allocator<wchar_t>>::_Vector_impl_data" }
%"struct.std::_Vector_base<wchar_t, std::allocator<wchar_t>>::_Vector_impl_data" = type { ptr, ptr, ptr }
%"class.std::vector.5" = type { %"struct.std::_Vector_base.6" }
%"struct.std::_Vector_base.6" = type { %"struct.std::_Vector_base<long, std::allocator<long>>::_Vector_impl" }
%"struct.std::_Vector_base<long, std::allocator<long>>::_Vector_impl" = type { %"struct.std::_Vector_base<long, std::allocator<long>>::_Vector_impl_data" }
%"struct.std::_Vector_base<long, std::allocator<long>>::_Vector_impl_data" = type { ptr, ptr, ptr }

; Function Attrs: mustprogress nounwind uwtable
define linkonce_odr noundef zeroext i1 @_ZN11SecPassword5IsSetEv(ptr noundef nonnull align 8 dereferenceable(25) %0) #6 comdat align 2 {
  %2 = alloca ptr, align 8
  store ptr %0, ptr %2, align 8
  %3 = load ptr, ptr %2, align 8
  %4 = getelementptr inbounds %class.SecPassword, ptr %3, i32 0, i32 1
  %5 = load i8, ptr %4, align 8
  %6 = trunc i8 %5 to i1
  ret i1 %6
}

; Function Attrs: mustprogress uwtable
define noundef zeroext i1 @_ZN10CmdExtract18ExtrDllGetPasswordEv(ptr noundef nonnull align 8 dereferenceable(16800) %0) #0 align 2 {
  %2 = alloca i1, align 1
  %3 = alloca ptr, align 8
  %4 = alloca [512 x i32], align 16
  %5 = alloca [512 x i8], align 16
  store ptr %0, ptr %3, align 8
  %6 = load ptr, ptr %3, align 8
  %7 = getelementptr inbounds %class.CmdExtract, ptr %6, i32 0, i32 4
  %8 = load ptr, ptr %7, align 8
  %9 = getelementptr inbounds %class.CommandData, ptr %8, i32 0, i32 12
  %10 = call noundef zeroext i1 @_ZN11SecPassword5IsSetEv(ptr noundef nonnull align 8 dereferenceable(25) %9)
  br i1 %10, label %74, label %11

11:                                               ; preds = %1
  %12 = getelementptr inbounds %class.CmdExtract, ptr %6, i32 0, i32 4
  %13 = load ptr, ptr %12, align 8
  %14 = getelementptr inbounds %class.RAROptions, ptr %13, i32 0, i32 100
  %15 = load ptr, ptr %14, align 8
  %16 = icmp ne ptr %15, null
  br i1 %16, label %17, label %67

17:                                               ; preds = %11
  %18 = getelementptr inbounds [512 x i32], ptr %4, i64 0, i64 0
  store i32 0, ptr %18, align 16
  %19 = getelementptr inbounds %class.CmdExtract, ptr %6, i32 0, i32 4
  %20 = load ptr, ptr %19, align 8
  %21 = getelementptr inbounds %class.RAROptions, ptr %20, i32 0, i32 100
  %22 = load ptr, ptr %21, align 8
  %23 = getelementptr inbounds %class.CmdExtract, ptr %6, i32 0, i32 4
  %24 = load ptr, ptr %23, align 8
  %25 = getelementptr inbounds %class.RAROptions, ptr %24, i32 0, i32 99
  %26 = load i64, ptr %25, align 8
  %27 = getelementptr inbounds [512 x i32], ptr %4, i64 0, i64 0
  %28 = ptrtoint ptr %27 to i64
  %29 = call noundef i32 %22(i32 noundef 4, i64 noundef %26, i64 noundef %28, i64 noundef 512)
  %30 = icmp eq i32 %29, -1
  br i1 %30, label %31, label %33

31:                                               ; preds = %17
  %32 = getelementptr inbounds [512 x i32], ptr %4, i64 0, i64 0
  store i32 0, ptr %32, align 16
  br label %33

33:                                               ; preds = %31, %17
  %34 = getelementptr inbounds [512 x i32], ptr %4, i64 0, i64 0
  %35 = load i32, ptr %34, align 16
  %36 = icmp eq i32 %35, 0
  br i1 %36, label %37, label %58

37:                                               ; preds = %33
  %38 = getelementptr inbounds [512 x i8], ptr %5, i64 0, i64 0
  store i8 0, ptr %38, align 16
  %39 = getelementptr inbounds %class.CmdExtract, ptr %6, i32 0, i32 4
  %40 = load ptr, ptr %39, align 8
  %41 = getelementptr inbounds %class.RAROptions, ptr %40, i32 0, i32 100
  %42 = load ptr, ptr %41, align 8
  %43 = getelementptr inbounds %class.CmdExtract, ptr %6, i32 0, i32 4
  %44 = load ptr, ptr %43, align 8
  %45 = getelementptr inbounds %class.RAROptions, ptr %44, i32 0, i32 99
  %46 = load i64, ptr %45, align 8
  %47 = getelementptr inbounds [512 x i8], ptr %5, i64 0, i64 0
  %48 = ptrtoint ptr %47 to i64
  %49 = call noundef i32 %42(i32 noundef 2, i64 noundef %46, i64 noundef %48, i64 noundef 512)
  %50 = icmp eq i32 %49, -1
  br i1 %50, label %51, label %53

51:                                               ; preds = %37
  %52 = getelementptr inbounds [512 x i8], ptr %5, i64 0, i64 0
  store i8 0, ptr %52, align 16
  br label %53

53:                                               ; preds = %51, %37
  %54 = getelementptr inbounds [512 x i8], ptr %5, i64 0, i64 0
  %55 = getelementptr inbounds [512 x i32], ptr %4, i64 0, i64 0
  %56 = call noundef ptr @_Z11GetWideNamePKcPKwPwm(ptr noundef %54, ptr noundef null, ptr noundef %55, i64 noundef 512)
  %57 = getelementptr inbounds [512 x i8], ptr %5, i64 0, i64 0
  call void @_Z9cleandataPvm(ptr noundef %57, i64 noundef 512)
  br label %58

58:                                               ; preds = %53, %33
  %59 = getelementptr inbounds %class.CmdExtract, ptr %6, i32 0, i32 4
  %60 = load ptr, ptr %59, align 8
  %61 = getelementptr inbounds %class.CommandData, ptr %60, i32 0, i32 12
  %62 = getelementptr inbounds [512 x i32], ptr %4, i64 0, i64 0
  call void @_ZN11SecPassword3SetEPKw(ptr noundef nonnull align 8 dereferenceable(25) %61, ptr noundef %62)
  %63 = getelementptr inbounds [512 x i32], ptr %4, i64 0, i64 0
  call void @_Z9cleandataPvm(ptr noundef %63, i64 noundef 2048)
  %64 = getelementptr inbounds %class.CmdExtract, ptr %6, i32 0, i32 4
  %65 = load ptr, ptr %64, align 8
  %66 = getelementptr inbounds %class.RAROptions, ptr %65, i32 0, i32 20
  store i8 1, ptr %66, align 2
  br label %67

67:                                               ; preds = %58, %11
  %68 = getelementptr inbounds %class.CmdExtract, ptr %6, i32 0, i32 4
  %69 = load ptr, ptr %68, align 8
  %70 = getelementptr inbounds %class.CommandData, ptr %69, i32 0, i32 12
  %71 = call noundef zeroext i1 @_ZN11SecPassword5IsSetEv(ptr noundef nonnull align 8 dereferenceable(25) %70)
  br i1 %71, label %73, label %72

72:                                               ; preds = %67
  store i1 false, ptr %2, align 1
  br label %75

73:                                               ; preds = %67
  br label %74

74:                                               ; preds = %73, %1
  store i1 true, ptr %2, align 1
  br label %75

75:                                               ; preds = %74, %72
  %76 = load i1, ptr %2, align 1
  ret i1 %76
}