; Function Attrs: mustprogress uwtable
define noundef zeroext i1 @_ZN10CmdExtract18ExtrDllGetPasswordEv(ptr nocapture noundef nonnull readonly align 8 dereferenceable(16800) %0) local_unnamed_addr #0 align 2 {
  %2 = alloca [512 x i32], align 16
  %3 = alloca [512 x i8], align 16
  %4 = getelementptr inbounds i8, ptr %0, i64 56
  %5 = load ptr, ptr %4, align 8
  %6 = getelementptr inbounds i8, ptr %5, i64 100872
  %7 = load i8, ptr %6, align 8
  %8 = trunc i8 %7 to i1
  br i1 %8, label %37, label %9

9:                                                ; preds = %1
  %10 = getelementptr inbounds i8, ptr %5, i64 83440
  %11 = load ptr, ptr %10, align 8
  %.not = icmp eq ptr %11, null
  br i1 %.not, label %.thread4, label %12

12:                                               ; preds = %9
  store i32 0, ptr %2, align 16
  %13 = getelementptr inbounds i8, ptr %5, i64 83432
  %14 = load i64, ptr %13, align 8
  %15 = ptrtoint ptr %2 to i64
  %16 = call noundef i32 %11(i32 noundef 4, i64 noundef %14, i64 noundef %15, i64 noundef 512)
  %17 = icmp eq i32 %16, -1
  br i1 %17, label %.thread, label %18

.thread:                                          ; preds = %12
  store i32 0, ptr %2, align 16
  br label %20

18:                                               ; preds = %12
  %.pr = load i32, ptr %2, align 16
  %19 = icmp eq i32 %.pr, 0
  br i1 %19, label %20, label %32

20:                                               ; preds = %.thread, %18
  store i8 0, ptr %3, align 16
  %21 = load ptr, ptr %4, align 8
  %22 = getelementptr inbounds i8, ptr %21, i64 83440
  %23 = load ptr, ptr %22, align 8
  %24 = getelementptr inbounds i8, ptr %21, i64 83432
  %25 = load i64, ptr %24, align 8
  %26 = ptrtoint ptr %3 to i64
  %27 = call noundef i32 %23(i32 noundef 2, i64 noundef %25, i64 noundef %26, i64 noundef 512)
  %28 = icmp eq i32 %27, -1
  br i1 %28, label %29, label %30

29:                                               ; preds = %20
  store i8 0, ptr %3, align 16
  br label %30

30:                                               ; preds = %29, %20
  %31 = call noundef ptr @_Z11GetWideNamePKcPKwPwm(ptr noundef nonnull %3, ptr noundef null, ptr noundef nonnull %2, i64 noundef 512)
  call void @_Z9cleandataPvm(ptr noundef nonnull %3, i64 noundef 512)
  br label %32

32:                                               ; preds = %18, %30
  %33 = load ptr, ptr %4, align 8
  %34 = getelementptr inbounds i8, ptr %33, i64 100848
  call void @_ZN11SecPassword3SetEPKw(ptr noundef nonnull align 8 dereferenceable(25) %34, ptr noundef nonnull %2)
  call void @_Z9cleandataPvm(ptr noundef nonnull %2, i64 noundef 2048)
  %35 = load ptr, ptr %4, align 8
  %36 = getelementptr inbounds i8, ptr %35, i64 49202
  store i8 1, ptr %36, align 2
  %.pre = load ptr, ptr %4, align 8
  %.phi.trans.insert = getelementptr inbounds i8, ptr %.pre, i64 100872
  %.pre2 = load i8, ptr %.phi.trans.insert, align 8
  %.pre3 = trunc i8 %.pre2 to i1
  br i1 %.pre3, label %37, label %.thread4

37:                                               ; preds = %32, %1
  br label %.thread4

.thread4:                                         ; preds = %9, %32, %37
  %.0 = phi i1 [ true, %37 ], [ false, %32 ], [ false, %9 ]
  ret i1 %.0
}